target datalayout = "e-m:e-p270:32:32-p271:32:32-p272:64:64-i64:64-i128:128-f80:128-n8:16:32:64-S128"
target triple = "x86_64-pc-linux-gnu"

%"struct.(anonymous namespace)::DffLegalizePass" = type { %"struct.Yosys::Pass", [16 x [32 x i32]], [16 x i32], i32, i32, i32, i32, i32, i32, i32, i32, i32, i32, i32, i32, i32, i32, i32, i32, %"class.Yosys::hashlib::dict", %"class.Yosys::hashlib::dict", %"struct.Yosys::SigMap", %"struct.Yosys::FfInitVals" }
%"struct.Yosys::Pass" = type { ptr, %"class.std::__cxx11::basic_string", %"class.std::__cxx11::basic_string", i32, i64, i8, ptr }
%"class.std::__cxx11::basic_string" = type { %"struct.std::__cxx11::basic_string<char>::_Alloc_hider", i64, %union.anon }
%"struct.std::__cxx11::basic_string<char>::_Alloc_hider" = type { ptr }
%union.anon = type { i64, [8 x i8] }
%"class.Yosys::hashlib::dict" = type <{ %"class.std::vector", %"class.std::vector.3", %"struct.Yosys::hashlib::hash_ops", [7 x i8] }>
%"class.std::vector" = type { %"struct.std::_Vector_base" }
%"struct.std::_Vector_base" = type { %"struct.std::_Vector_base<int, std::allocator<int>>::_Vector_impl" }
%"struct.std::_Vector_base<int, std::allocator<int>>::_Vector_impl" = type { %"struct.std::_Vector_base<int, std::allocator<int>>::_Vector_impl_data" }
%"struct.std::_Vector_base<int, std::allocator<int>>::_Vector_impl_data" = type { ptr, ptr, ptr }
%"class.std::vector.3" = type { %"struct.std::_Vector_base.4" }
%"struct.std::_Vector_base.4" = type { %"struct.std::_Vector_base<Yosys::hashlib::dict<Yosys::RTLIL::SigBit, int>::entry_t, std::allocator<Yosys::hashlib::dict<Yosys::RTLIL::SigBit, int>::entry_t>>::_Vector_impl" }
%"struct.std::_Vector_base<Yosys::hashlib::dict<Yosys::RTLIL::SigBit, int>::entry_t, std::allocator<Yosys::hashlib::dict<Yosys::RTLIL::SigBit, int>::entry_t>>::_Vector_impl" = type { %"struct.std::_Vector_base<Yosys::hashlib::dict<Yosys::RTLIL::SigBit, int>::entry_t, std::allocator<Yosys::hashlib::dict<Yosys::RTLIL::SigBit, int>::entry_t>>::_Vector_impl_data" }
%"struct.std::_Vector_base<Yosys::hashlib::dict<Yosys::RTLIL::SigBit, int>::entry_t, std::allocator<Yosys::hashlib::dict<Yosys::RTLIL::SigBit, int>::entry_t>>::_Vector_impl_data" = type { ptr, ptr, ptr }
%"struct.Yosys::hashlib::hash_ops" = type { i8 }
%"struct.Yosys::SigMap" = type { %"class.Yosys::hashlib::mfp" }
%"class.Yosys::hashlib::mfp" = type { %"class.Yosys::hashlib::idict", %"class.std::vector" }
%"class.Yosys::hashlib::idict" = type { %"class.Yosys::hashlib::pool" }
%"class.Yosys::hashlib::pool" = type <{ %"class.std::vector", %"class.std::vector.8", %"struct.Yosys::hashlib::hash_ops", [7 x i8] }>
%"class.std::vector.8" = type { %"struct.std::_Vector_base.9" }
%"struct.std::_Vector_base.9" = type { %"struct.std::_Vector_base<Yosys::hashlib::pool<Yosys::RTLIL::SigBit>::entry_t, std::allocator<Yosys::hashlib::pool<Yosys::RTLIL::SigBit>::entry_t>>::_Vector_impl" }
%"struct.std::_Vector_base<Yosys::hashlib::pool<Yosys::RTLIL::SigBit>::entry_t, std::allocator<Yosys::hashlib::pool<Yosys::RTLIL::SigBit>::entry_t>>::_Vector_impl" = type { %"struct.std::_Vector_base<Yosys::hashlib::pool<Yosys::RTLIL::SigBit>::entry_t, std::allocator<Yosys::hashlib::pool<Yosys::RTLIL::SigBit>::entry_t>>::_Vector_impl_data" }
%"struct.std::_Vector_base<Yosys::hashlib::pool<Yosys::RTLIL::SigBit>::entry_t, std::allocator<Yosys::hashlib::pool<Yosys::RTLIL::SigBit>::entry_t>>::_Vector_impl_data" = type { ptr, ptr, ptr }
%"struct.Yosys::FfInitVals" = type { ptr, %"class.Yosys::hashlib::dict.13" }
%"class.Yosys::hashlib::dict.13" = type <{ %"class.std::vector", %"class.std::vector.14", %"struct.Yosys::hashlib::hash_ops", [7 x i8] }>
%"class.std::vector.14" = type { %"struct.std::_Vector_base.15" }
%"struct.std::_Vector_base.15" = type { %"struct.std::_Vector_base<Yosys::hashlib::dict<Yosys::RTLIL::SigBit, std::pair<Yosys::RTLIL::State, Yosys::RTLIL::SigBit>>::entry_t, std::allocator<Yosys::hashlib::dict<Yosys::RTLIL::SigBit, std::pair<Yosys::RTLIL::State, Yosys::RTLIL::SigBit>>::entry_t>>::_Vector_impl" }
%"struct.std::_Vector_base<Yosys::hashlib::dict<Yosys::RTLIL::SigBit, std::pair<Yosys::RTLIL::State, Yosys::RTLIL::SigBit>>::entry_t, std::allocator<Yosys::hashlib::dict<Yosys::RTLIL::SigBit, std::pair<Yosys::RTLIL::State, Yosys::RTLIL::SigBit>>::entry_t>>::_Vector_impl" = type { %"struct.std::_Vector_base<Yosys::hashlib::dict<Yosys::RTLIL::SigBit, std::pair<Yosys::RTLIL::State, Yosys::RTLIL::SigBit>>::entry_t, std::allocator<Yosys::hashlib::dict<Yosys::RTLIL::SigBit, std::pair<Yosys::RTLIL::State, Yosys::RTLIL::SigBit>>::entry_t>>::_Vector_impl_data" }
%"struct.std::_Vector_base<Yosys::hashlib::dict<Yosys::RTLIL::SigBit, std::pair<Yosys::RTLIL::State, Yosys::RTLIL::SigBit>>::entry_t, std::allocator<Yosys::hashlib::dict<Yosys::RTLIL::SigBit, std::pair<Yosys::RTLIL::State, Yosys::RTLIL::SigBit>>::entry_t>>::_Vector_impl_data" = type { ptr, ptr, ptr }

; Function Attrs: mustprogress uwtable
define internal void @_ZN12_GLOBAL__N_115DffLegalizePass15legalize_sdffceERN5Yosys6FfDataE(ptr noundef nonnull align 8 dereferenceable(2536) %0, ptr noundef nonnull align 8 dereferenceable(856) %1) #4 align 2 {
  %3 = alloca ptr, align 8
  %4 = alloca ptr, align 8
  %5 = alloca i32, align 4
  store ptr %0, ptr %3, align 8
  store ptr %1, ptr %4, align 8
  %6 = load ptr, ptr %3, align 8
  %7 = load ptr, ptr %4, align 8
  %8 = getelementptr inbounds %"struct.(anonymous namespace)::DffLegalizePass", ptr %6, i32 0, i32 2
  %9 = getelementptr inbounds [16 x i32], ptr %8, i64 0, i64 10
  %10 = load i32, ptr %9, align 8
  %11 = getelementptr inbounds %"struct.(anonymous namespace)::DffLegalizePass", ptr %6, i32 0, i32 2
  %12 = getelementptr inbounds [16 x i32], ptr %11, i64 0, i64 9
  %13 = load i32, ptr %12, align 4
  %14 = or i32 %10, %13
  %15 = call noundef zeroext i1 @_ZN12_GLOBAL__N_115DffLegalizePass8try_flipERN5Yosys6FfDataEi(ptr noundef nonnull align 8 dereferenceable(2536) %6, ptr noundef nonnull align 8 dereferenceable(856) %7, i32 noundef %14)
  br i1 %15, label %19, label %16

16:                                               ; preds = %2
  %17 = load ptr, ptr %4, align 8
  call void @_ZN5Yosys6FfData10unmap_srstEv(ptr noundef nonnull align 8 dereferenceable(856) %17)
  %18 = load ptr, ptr %4, align 8
  call void @_ZN12_GLOBAL__N_115DffLegalizePass12legalize_dffERN5Yosys6FfDataE(ptr noundef nonnull align 8 dereferenceable(2536) %6, ptr noundef nonnull align 8 dereferenceable(856) %18)
  br label %44

19:                                               ; preds = %2
  %20 = load ptr, ptr %4, align 8
  %21 = call noundef i32 @_ZN12_GLOBAL__N_115DffLegalizePass12get_initmaskERN5Yosys6FfDataE(ptr noundef nonnull align 8 dereferenceable(2536) %6, ptr noundef nonnull align 8 dereferenceable(856) %20)
  store i32 %21, ptr %5, align 4
  %22 = getelementptr inbounds %"struct.(anonymous namespace)::DffLegalizePass", ptr %6, i32 0, i32 2
  %23 = getelementptr inbounds [16 x i32], ptr %22, i64 0, i64 10
  %24 = load i32, ptr %23, align 8
  %25 = load i32, ptr %5, align 4
  %26 = and i32 %24, %25
  %27 = icmp ne i32 %26, 0
  br i1 %27, label %28, label %29

28:                                               ; preds = %19
  br label %42

29:                                               ; preds = %19
  %30 = getelementptr inbounds %"struct.(anonymous namespace)::DffLegalizePass", ptr %6, i32 0, i32 2
  %31 = getelementptr inbounds [16 x i32], ptr %30, i64 0, i64 9
  %32 = load i32, ptr %31, align 4
  %33 = load i32, ptr %5, align 4
  %34 = and i32 %32, %33
  %35 = icmp ne i32 %34, 0
  br i1 %35, label %36, label %38

36:                                               ; preds = %29
  %37 = load ptr, ptr %4, align 8
  call void @_ZN5Yosys6FfData20convert_ce_over_srstEb(ptr noundef nonnull align 8 dereferenceable(856) %37, i1 noundef zeroext false)
  br label %41

38:                                               ; preds = %29
  br label %39

39:                                               ; preds = %38
  br label %40

40:                                               ; preds = %39
  br label %41

41:                                               ; preds = %40, %36
  br label %42

42:                                               ; preds = %41, %28
  %43 = load ptr, ptr %4, align 8
  call void @_ZN12_GLOBAL__N_115DffLegalizePass15legalize_finishERN5Yosys6FfDataE(ptr noundef nonnull align 8 dereferenceable(2536) %6, ptr noundef nonnull align 8 dereferenceable(856) %43)
  br label %44

44:                                               ; preds = %42, %16
  ret void
}