; Function Attrs: mustprogress uwtable
define internal fastcc void @_ZN12_GLOBAL__N_115DffLegalizePass15legalize_sdffceERN5Yosys6FfDataE(ptr nocapture noundef nonnull readonly align 8 dereferenceable(2536) %0, ptr noundef nonnull align 8 dereferenceable(856) %1) unnamed_addr #4 align 2 {
  %3 = getelementptr inbounds i8, ptr %0, i64 2192
  %4 = load i32, ptr %3, align 8
  %5 = getelementptr inbounds i8, ptr %0, i64 2188
  %6 = load i32, ptr %5, align 4
  %7 = or i32 %6, %4
  %8 = tail call fastcc noundef zeroext i1 @_ZN12_GLOBAL__N_115DffLegalizePass8try_flipERN5Yosys6FfDataEi(ptr noundef nonnull align 8 dereferenceable(856) %1, i32 noundef %7)
  br i1 %8, label %10, label %9

9:                                                ; preds = %2
  tail call void @_ZN5Yosys6FfData10unmap_srstEv(ptr noundef nonnull align 8 dereferenceable(856) %1)
  tail call fastcc void @_ZN12_GLOBAL__N_115DffLegalizePass12legalize_dffERN5Yosys6FfDataE(ptr noundef nonnull align 8 dereferenceable(2536) %0, ptr noundef nonnull align 8 dereferenceable(856) %1)
  br label %19

10:                                               ; preds = %2
  %11 = tail call fastcc noundef i32 @_ZN12_GLOBAL__N_115DffLegalizePass12get_initmaskERN5Yosys6FfDataE(ptr noundef nonnull align 8 dereferenceable(856) %1)
  %12 = load i32, ptr %3, align 8
  %13 = and i32 %12, %11
  %.not = icmp eq i32 %13, 0
  br i1 %.not, label %14, label %18

14:                                               ; preds = %10
  %15 = load i32, ptr %5, align 4
  %16 = and i32 %15, %11
  %.not8 = icmp eq i32 %16, 0
  br i1 %.not8, label %18, label %17

17:                                               ; preds = %14
  tail call void @_ZN5Yosys6FfData20convert_ce_over_srstEb(ptr noundef nonnull align 8 dereferenceable(856) %1, i1 noundef zeroext false)
  br label %18

18:                                               ; preds = %17, %14, %10
  tail call fastcc void @_ZN12_GLOBAL__N_115DffLegalizePass15legalize_finishERN5Yosys6FfDataE(ptr noundef nonnull align 8 dereferenceable(2536) %0, ptr noundef nonnull align 8 dereferenceable(856) %1)
  br label %19

19:                                               ; preds = %18, %9
  ret void
}